target datalayout = "e-m:e-p270:32:32-p271:32:32-p272:64:64-i64:64-i128:128-f80:128-n8:16:32:64-S128"
target triple = "x86_64-unknown-linux-gnu"

%"class.std::set.0" = type { %"class.std::_Rb_tree.1" }
%"class.std::_Rb_tree.1" = type { %"struct.std::_Rb_tree<QuantLib::Observer *, QuantLib::Observer *, std::_Identity<QuantLib::Observer *>, std::less<QuantLib::Observer *>>::_Rb_tree_impl" }
%"struct.std::_Rb_tree<QuantLib::Observer *, QuantLib::Observer *, std::_Identity<QuantLib::Observer *>, std::less<QuantLib::Observer *>>::_Rb_tree_impl" = type { [8 x i8], %"struct.std::_Rb_tree_header" }
%"struct.std::_Rb_tree_header" = type { %"struct.std::_Rb_tree_node_base", i64 }
%"struct.std::_Rb_tree_node_base" = type { i32, ptr, ptr, ptr }
%"class.std::set" = type { %"class.std::_Rb_tree" }
%"class.std::_Rb_tree" = type { %"struct.std::_Rb_tree<boost::shared_ptr<QuantLib::Observable>, boost::shared_ptr<QuantLib::Observable>, std::_Identity<boost::shared_ptr<QuantLib::Observable>>, std::less<boost::shared_ptr<QuantLib::Observable>>>::_Rb_tree_impl" }
%"struct.std::_Rb_tree<boost::shared_ptr<QuantLib::Observable>, boost::shared_ptr<QuantLib::Observable>, std::_Identity<boost::shared_ptr<QuantLib::Observable>>, std::less<boost::shared_ptr<QuantLib::Observable>>>::_Rb_tree_impl" = type { [8 x i8], %"struct.std::_Rb_tree_header" }
%"class.boost::detail::shared_count" = type { ptr }
%"class.QuantLib::Observable" = type { ptr, %"class.std::set.0" }
%"class.QuantLib::AnalyticBarrierEngine" = type { %"class.QuantLib::BarrierOption::engine", %"class.boost::shared_ptr.23", %"class.QuantLib::CumulativeNormalDistribution" }
%"class.QuantLib::BarrierOption::engine" = type { %"class.QuantLib::GenericEngine" }
%"class.QuantLib::GenericEngine" = type { %"class.QuantLib::PricingEngine", %"class.QuantLib::Observer", %"class.QuantLib::BarrierOption::arguments", %"class.QuantLib::OneAssetOption::results" }
%"class.QuantLib::PricingEngine" = type { %"class.QuantLib::Observable" }
%"class.QuantLib::Observer" = type { ptr, %"class.std::set" }
%"class.QuantLib::BarrierOption::arguments" = type { %"class.QuantLib::Option::arguments", i32, double, double }
%"class.QuantLib::Option::arguments" = type { %"class.QuantLib::PricingEngine::arguments", %"class.boost::shared_ptr.16", %"class.boost::shared_ptr.17" }
%"class.QuantLib::PricingEngine::arguments" = type { ptr }
%"class.boost::shared_ptr.16" = type { ptr, %"class.boost::detail::shared_count" }
%"class.boost::shared_ptr.17" = type { ptr, %"class.boost::detail::shared_count" }
%"class.QuantLib::OneAssetOption::results" = type { %"class.QuantLib::Instrument::results", %"class.QuantLib::Greeks", %"class.QuantLib::MoreGreeks" }
%"class.QuantLib::Instrument::results" = type { %"class.QuantLib::PricingEngine::results", double, double, %"class.QuantLib::Date", %"class.std::map" }
%"class.QuantLib::PricingEngine::results" = type { ptr }
%"class.QuantLib::Date" = type { i64 }
%"class.std::map" = type { %"class.std::_Rb_tree.10" }
%"class.std::_Rb_tree.10" = type { %"struct.std::_Rb_tree<std::__cxx11::basic_string<char>, std::pair<const std::__cxx11::basic_string<char>, boost::any>, std::_Select1st<std::pair<const std::__cxx11::basic_string<char>, boost::any>>, std::less<std::__cxx11::basic_string<char>>>::_Rb_tree_impl" }
%"struct.std::_Rb_tree<std::__cxx11::basic_string<char>, std::pair<const std::__cxx11::basic_string<char>, boost::any>, std::_Select1st<std::pair<const std::__cxx11::basic_string<char>, boost::any>>, std::less<std::__cxx11::basic_string<char>>>::_Rb_tree_impl" = type { [8 x i8], %"struct.std::_Rb_tree_header" }
%"class.QuantLib::Greeks" = type { %"class.QuantLib::PricingEngine::results", double, double, double, double, double, double }
%"class.QuantLib::MoreGreeks" = type { %"class.QuantLib::PricingEngine::results", double, double, double, double, double }
%"class.boost::shared_ptr.23" = type { ptr, %"class.boost::detail::shared_count" }
%"class.QuantLib::CumulativeNormalDistribution" = type <{ double, double, %"class.QuantLib::NormalDistribution", [8 x i8] }>
%"class.QuantLib::NormalDistribution" = type { double, double, double, double, double }

@.str.19 = private unnamed_addr constant [8 x i8] c"px != 0\00", align 1
@.str.20 = private unnamed_addr constant [102 x i8] c"generated/home/dtcxzyw/WorkSpace/SDK/vcpkg/installed/x64-linux/include/boost/smart_ptr/shared_ptr.hpp\00", align 1

; Function Attrs: mustprogress uwtable
define linkonce_odr noundef ptr @_ZNK5boost10shared_ptrIN8QuantLib30GeneralizedBlackScholesProcessEEptEv(ptr noundef nonnull align 8 dereferenceable(16) %this) #2 comdat align 2 {
entry:
  %this.addr = alloca ptr, align 8
  store ptr %this, ptr %this.addr, align 8, !tbaa !3
  %this1 = load ptr, ptr %this.addr, align 8
  %px = getelementptr inbounds nuw %"class.boost::shared_ptr.23", ptr %this1, i32 0, i32 0
  %0 = load ptr, ptr %px, align 8, !tbaa !14
  %cmp = icmp ne ptr %0, null
  %lnot = xor i1 %cmp, true
  %lnot2 = xor i1 %lnot, true
  %conv = zext i1 %lnot2 to i64
  %expval = call i64 @llvm.expect.i64(i64 %conv, i64 1)
  %tobool = icmp ne i64 %expval, 0
  br i1 %tobool, label %cond.true, label %cond.false

cond.true:                                        ; preds = %entry
  br label %cond.end

cond.false:                                       ; preds = %entry
  call void @_ZN5boost16assertion_failedEPKcS1_S1_l(ptr noundef @.str.19, ptr noundef @__PRETTY_FUNCTION__._ZNK5boost10shared_ptrIN8QuantLib30GeneralizedBlackScholesProcessEEptEv, ptr noundef @.str.20, i64 noundef 784)
  br label %cond.end

cond.end:                                         ; preds = %cond.false, %cond.true
  %px3 = getelementptr inbounds nuw %"class.boost::shared_ptr.23", ptr %this1, i32 0, i32 0
  %1 = load ptr, ptr %px3, align 8, !tbaa !14
  ret ptr %1
}

; Function Attrs: mustprogress uwtable
define noundef double @_ZNK8QuantLib21AnalyticBarrierEngine7muSigmaEv(ptr noundef nonnull align 8 dereferenceable(440) %this) #2 align 2 {
entry:
  %this.addr = alloca ptr, align 8
  store ptr %this, ptr %this.addr, align 8, !tbaa !3
  %this1 = load ptr, ptr %this.addr, align 8
  %call = call noundef double @_ZNK8QuantLib21AnalyticBarrierEngine2muEv(ptr noundef nonnull align 8 dereferenceable(440) %this1)
  %add = fadd double 1.000000e+00, %call
  %call2 = call noundef double @_ZNK8QuantLib21AnalyticBarrierEngine12stdDeviationEv(ptr noundef nonnull align 8 dereferenceable(440) %this1)
  %mul = fmul double %add, %call2
  ret double %mul
}

; Function Attrs: mustprogress uwtable
define noundef double @_ZNK8QuantLib21AnalyticBarrierEngine2muEv(ptr noundef nonnull align 8 dereferenceable(440) %this) #2 align 2 {
entry:
  %this.addr = alloca ptr, align 8
  %vol = alloca double, align 8
  store ptr %this, ptr %this.addr, align 8, !tbaa !3
  %this1 = load ptr, ptr %this.addr, align 8
  call void @llvm.lifetime.start.p0(i64 8, ptr %vol) #13
  %call = call noundef double @_ZNK8QuantLib21AnalyticBarrierEngine10volatilityEv(ptr noundef nonnull align 8 dereferenceable(440) %this1)
  store double %call, ptr %vol, align 8, !tbaa !16
  %call2 = call noundef double @_ZNK8QuantLib21AnalyticBarrierEngine12riskFreeRateEv(ptr noundef nonnull align 8 dereferenceable(440) %this1)
  %call3 = call noundef double @_ZNK8QuantLib21AnalyticBarrierEngine13dividendYieldEv(ptr noundef nonnull align 8 dereferenceable(440) %this1)
  %sub = fsub double %call2, %call3
  %0 = load double, ptr %vol, align 8, !tbaa !16
  %1 = load double, ptr %vol, align 8, !tbaa !16
  %mul = fmul double %0, %1
  %div = fdiv double %sub, %mul
  %sub4 = fsub double %div, 5.000000e-01
  call void @llvm.lifetime.end.p0(i64 8, ptr %vol) #13
  ret double %sub4
}

; Function Attrs: mustprogress uwtable
define noundef double @_ZNK8QuantLib21AnalyticBarrierEngine10underlyingEv(ptr noundef nonnull align 8 dereferenceable(440) %this) #2 align 2 {
entry:
  %this.addr = alloca ptr, align 8
  store ptr %this, ptr %this.addr, align 8, !tbaa !3
  %this1 = load ptr, ptr %this.addr, align 8
  %process_ = getelementptr inbounds nuw %"class.QuantLib::AnalyticBarrierEngine", ptr %this1, i32 0, i32 1
  %call = call noundef ptr @_ZNK5boost10shared_ptrIN8QuantLib30GeneralizedBlackScholesProcessEEptEv(ptr noundef nonnull align 8 dereferenceable(16) %process_)
  %vtable = load ptr, ptr %call, align 8, !tbaa !12
  %vfn = getelementptr inbounds ptr, ptr %vtable, i64 15
  %0 = load ptr, ptr %vfn, align 8
  %call2 = call noundef double %0(ptr noundef nonnull align 8 dereferenceable(250) %call)
  ret double %call2
}

; Function Attrs: mustprogress nounwind uwtable
define noundef double @_ZNK8QuantLib21AnalyticBarrierEngine7barrierEv(ptr noundef nonnull align 8 dereferenceable(440) %this) #1 align 2 {
entry:
  %this.addr = alloca ptr, align 8
  store ptr %this, ptr %this.addr, align 8, !tbaa !3
  %this1 = load ptr, ptr %this.addr, align 8
  %arguments_ = getelementptr inbounds nuw %"class.QuantLib::GenericEngine", ptr %this1, i32 0, i32 2
  %barrier = getelementptr inbounds nuw %"class.QuantLib::BarrierOption::arguments", ptr %arguments_, i32 0, i32 2
  %0 = load double, ptr %barrier, align 8, !tbaa !77
  ret double %0
}

; Function Attrs: mustprogress uwtable
define noundef double @_ZNK8QuantLib21AnalyticBarrierEngine1CEdd(ptr noundef nonnull align 8 dereferenceable(440) %this, double noundef %eta, double noundef %phi) #2 align 2 {
entry:
  %this.addr = alloca ptr, align 8
  %eta.addr = alloca double, align 8
  %phi.addr = alloca double, align 8
  %HS = alloca double, align 8
  %powHS0 = alloca double, align 8
  %powHS1 = alloca double, align 8
  %y1 = alloca double, align 8
  %N1 = alloca double, align 8
  %N2 = alloca double, align 8
  store ptr %this, ptr %this.addr, align 8, !tbaa !3
  store double %eta, ptr %eta.addr, align 8, !tbaa !16
  store double %phi, ptr %phi.addr, align 8, !tbaa !16
  %this1 = load ptr, ptr %this.addr, align 8
  call void @llvm.lifetime.start.p0(i64 8, ptr %HS) #13
  %call = call noundef double @_ZNK8QuantLib21AnalyticBarrierEngine7barrierEv(ptr noundef nonnull align 8 dereferenceable(440) %this1)
  %call2 = call noundef double @_ZNK8QuantLib21AnalyticBarrierEngine10underlyingEv(ptr noundef nonnull align 8 dereferenceable(440) %this1)
  %div = fdiv double %call, %call2
  store double %div, ptr %HS, align 8, !tbaa !16
  call void @llvm.lifetime.start.p0(i64 8, ptr %powHS0) #13
  %0 = load double, ptr %HS, align 8, !tbaa !16
  %call3 = call noundef double @_ZNK8QuantLib21AnalyticBarrierEngine2muEv(ptr noundef nonnull align 8 dereferenceable(440) %this1)
  %mul = fmul double 2.000000e+00, %call3
  %call4 = call double @pow(double noundef %0, double noundef %mul) #13, !tbaa !78
  store double %call4, ptr %powHS0, align 8, !tbaa !16
  call void @llvm.lifetime.start.p0(i64 8, ptr %powHS1) #13
  %1 = load double, ptr %powHS0, align 8, !tbaa !16
  %2 = load double, ptr %HS, align 8, !tbaa !16
  %mul5 = fmul double %1, %2
  %3 = load double, ptr %HS, align 8, !tbaa !16
  %mul6 = fmul double %mul5, %3
  store double %mul6, ptr %powHS1, align 8, !tbaa !16
  call void @llvm.lifetime.start.p0(i64 8, ptr %y1) #13
  %call7 = call noundef double @_ZNK8QuantLib21AnalyticBarrierEngine7barrierEv(ptr noundef nonnull align 8 dereferenceable(440) %this1)
  %4 = load double, ptr %HS, align 8, !tbaa !16
  %mul8 = fmul double %call7, %4
  %call9 = call noundef double @_ZNK8QuantLib21AnalyticBarrierEngine6strikeEv(ptr noundef nonnull align 8 dereferenceable(440) %this1)
  %div10 = fdiv double %mul8, %call9
  %call11 = call double @log(double noundef %div10) #13, !tbaa !78
  %call12 = call noundef double @_ZNK8QuantLib21AnalyticBarrierEngine12stdDeviationEv(ptr noundef nonnull align 8 dereferenceable(440) %this1)
  %div13 = fdiv double %call11, %call12
  %call14 = call noundef double @_ZNK8QuantLib21AnalyticBarrierEngine7muSigmaEv(ptr noundef nonnull align 8 dereferenceable(440) %this1)
  %add = fadd double %div13, %call14
  store double %add, ptr %y1, align 8, !tbaa !16
  call void @llvm.lifetime.start.p0(i64 8, ptr %N1) #13
  %f_ = getelementptr inbounds nuw %"class.QuantLib::AnalyticBarrierEngine", ptr %this1, i32 0, i32 2
  %5 = load double, ptr %eta.addr, align 8, !tbaa !16
  %6 = load double, ptr %y1, align 8, !tbaa !16
  %mul15 = fmul double %5, %6
  %call16 = call noundef double @_ZNK8QuantLib28CumulativeNormalDistributionclEd(ptr noundef nonnull align 8 dereferenceable(57) %f_, double noundef %mul15)
  store double %call16, ptr %N1, align 8, !tbaa !16
  call void @llvm.lifetime.start.p0(i64 8, ptr %N2) #13
  %f_17 = getelementptr inbounds nuw %"class.QuantLib::AnalyticBarrierEngine", ptr %this1, i32 0, i32 2
  %7 = load double, ptr %eta.addr, align 8, !tbaa !16
  %8 = load double, ptr %y1, align 8, !tbaa !16
  %call18 = call noundef double @_ZNK8QuantLib21AnalyticBarrierEngine12stdDeviationEv(ptr noundef nonnull align 8 dereferenceable(440) %this1)
  %sub = fsub double %8, %call18
  %mul19 = fmul double %7, %sub
  %call20 = call noundef double @_ZNK8QuantLib28CumulativeNormalDistributionclEd(ptr noundef nonnull align 8 dereferenceable(57) %f_17, double noundef %mul19)
  store double %call20, ptr %N2, align 8, !tbaa !16
  %9 = load double, ptr %phi.addr, align 8, !tbaa !16
  %call21 = call noundef double @_ZNK8QuantLib21AnalyticBarrierEngine10underlyingEv(ptr noundef nonnull align 8 dereferenceable(440) %this1)
  %call22 = call noundef double @_ZNK8QuantLib21AnalyticBarrierEngine16dividendDiscountEv(ptr noundef nonnull align 8 dereferenceable(440) %this1)
  %mul23 = fmul double %call21, %call22
  %10 = load double, ptr %N1, align 8, !tbaa !16
  %cmp = fcmp oeq double %10, 0.000000e+00
  br i1 %cmp, label %cond.true, label %cond.false

cond.true:                                        ; preds = %entry
  br label %cond.end

cond.false:                                       ; preds = %entry
  %11 = load double, ptr %powHS1, align 8, !tbaa !16
  %12 = load double, ptr %N1, align 8, !tbaa !16
  %mul24 = fmul double %11, %12
  br label %cond.end

cond.end:                                         ; preds = %cond.false, %cond.true
  %cond = phi double [ 0.000000e+00, %cond.true ], [ %mul24, %cond.false ]
  %call26 = call noundef double @_ZNK8QuantLib21AnalyticBarrierEngine6strikeEv(ptr noundef nonnull align 8 dereferenceable(440) %this1)
  %call27 = call noundef double @_ZNK8QuantLib21AnalyticBarrierEngine16riskFreeDiscountEv(ptr noundef nonnull align 8 dereferenceable(440) %this1)
  %mul28 = fmul double %call26, %call27
  %13 = load double, ptr %N2, align 8, !tbaa !16
  %cmp29 = fcmp oeq double %13, 0.000000e+00
  br i1 %cmp29, label %cond.true30, label %cond.false31

cond.true30:                                      ; preds = %cond.end
  br label %cond.end33

cond.false31:                                     ; preds = %cond.end
  %14 = load double, ptr %powHS0, align 8, !tbaa !16
  %15 = load double, ptr %N2, align 8, !tbaa !16
  %mul32 = fmul double %14, %15
  br label %cond.end33

cond.end33:                                       ; preds = %cond.false31, %cond.true30
  %cond34 = phi double [ 0.000000e+00, %cond.true30 ], [ %mul32, %cond.false31 ]
  %mul35 = fmul double %mul28, %cond34
  %neg = fneg double %mul35
  %16 = call double @llvm.fmuladd.f64(double %mul23, double %cond, double %neg)
  %mul36 = fmul double %9, %16
  call void @llvm.lifetime.end.p0(i64 8, ptr %N2) #13
  call void @llvm.lifetime.end.p0(i64 8, ptr %N1) #13
  call void @llvm.lifetime.end.p0(i64 8, ptr %y1) #13
  call void @llvm.lifetime.end.p0(i64 8, ptr %powHS1) #13
  call void @llvm.lifetime.end.p0(i64 8, ptr %powHS0) #13
  call void @llvm.lifetime.end.p0(i64 8, ptr %HS) #13
  ret double %mul36
}