; Function Attrs: mustprogress uwtable
define noundef double @_ZNK8QuantLib21AnalyticBarrierEngine1CEdd(ptr noundef nonnull align 8 dereferenceable(440) %this, double noundef %eta, double noundef %phi) local_unnamed_addr #8 align 2 {
entry:
  %barrier.i = getelementptr inbounds nuw i8, ptr %this, i64 160
  %0 = load double, ptr %barrier.i, align 8, !tbaa !103
  %process_.i = getelementptr inbounds nuw i8, ptr %this, i64 360
  %1 = load ptr, ptr %process_.i, align 8, !tbaa !39
  %cmp.not.i.i = icmp eq ptr %1, null
  br i1 %cmp.not.i.i, label %cond.false.i.i, label %_ZNK8QuantLib21AnalyticBarrierEngine10underlyingEv.exit, !prof !71

cond.false.i.i:                                   ; preds = %entry
  tail call void @_ZN5boost16assertion_failedEPKcS1_S1_l(ptr noundef nonnull @.str.19, ptr noundef nonnull @__PRETTY_FUNCTION__._ZNK5boost10shared_ptrIN8QuantLib30GeneralizedBlackScholesProcessEEptEv, ptr noundef nonnull @.str.20, i64 noundef 784)
  %.pre.i.i = load ptr, ptr %process_.i, align 8, !tbaa !39
  br label %_ZNK8QuantLib21AnalyticBarrierEngine10underlyingEv.exit

_ZNK8QuantLib21AnalyticBarrierEngine10underlyingEv.exit: ; preds = %entry, %cond.false.i.i
  %2 = phi ptr [ %1, %entry ], [ %.pre.i.i, %cond.false.i.i ]
  %vtable.i = load ptr, ptr %2, align 8, !tbaa !35
  %vfn.i = getelementptr inbounds i8, ptr %vtable.i, i64 120
  %3 = load ptr, ptr %vfn.i, align 8
  %call2.i = tail call noundef double %3(ptr noundef nonnull align 8 dereferenceable(250) %2)
  %div = fdiv double %0, %call2.i
  %call.i = tail call noundef double @_ZNK8QuantLib21AnalyticBarrierEngine10volatilityEv(ptr noundef nonnull readonly align 8 dereferenceable(440) %this)
  %call2.i9 = tail call noundef double @_ZNK8QuantLib21AnalyticBarrierEngine12riskFreeRateEv(ptr noundef nonnull readonly align 8 dereferenceable(440) %this)
  %call3.i = tail call noundef double @_ZNK8QuantLib21AnalyticBarrierEngine13dividendYieldEv(ptr noundef nonnull readonly align 8 dereferenceable(440) %this)
  %sub.i = fsub double %call2.i9, %call3.i
  %mul.i = fmul double %call.i, %call.i
  %div.i = fdiv double %sub.i, %mul.i
  %sub4.i = fadd double %div.i, -5.000000e-01
  %mul = fmul double %sub4.i, 2.000000e+00
  %call4 = tail call double @pow(double noundef %div, double noundef %mul) #27, !tbaa !105
  %4 = load double, ptr %barrier.i, align 8, !tbaa !103
  %mul8 = fmul double %div, %4
  %call9 = tail call noundef double @_ZNK8QuantLib21AnalyticBarrierEngine6strikeEv(ptr noundef nonnull align 8 dereferenceable(440) %this)
  %div10 = fdiv double %mul8, %call9
  %call11 = tail call double @log(double noundef %div10) #27, !tbaa !105
  %call12 = tail call noundef double @_ZNK8QuantLib21AnalyticBarrierEngine12stdDeviationEv(ptr noundef nonnull align 8 dereferenceable(440) %this)
  %div13 = fdiv double %call11, %call12
  %call.i.i = tail call noundef double @_ZNK8QuantLib21AnalyticBarrierEngine10volatilityEv(ptr noundef nonnull readonly align 8 dereferenceable(440) %this)
  %call2.i.i = tail call noundef double @_ZNK8QuantLib21AnalyticBarrierEngine12riskFreeRateEv(ptr noundef nonnull readonly align 8 dereferenceable(440) %this)
  %call3.i.i = tail call noundef double @_ZNK8QuantLib21AnalyticBarrierEngine13dividendYieldEv(ptr noundef nonnull readonly align 8 dereferenceable(440) %this)
  %sub.i.i = fsub double %call2.i.i, %call3.i.i
  %mul.i.i = fmul double %call.i.i, %call.i.i
  %div.i.i = fdiv double %sub.i.i, %mul.i.i
  %sub4.i.i = fadd double %div.i.i, -5.000000e-01
  %add.i = fadd double %sub4.i.i, 1.000000e+00
  %call2.i11 = tail call noundef double @_ZNK8QuantLib21AnalyticBarrierEngine12stdDeviationEv(ptr noundef nonnull readonly align 8 dereferenceable(440) %this)
  %mul.i12 = fmul double %call2.i11, %add.i
  %add = fadd double %div13, %mul.i12
  %f_ = getelementptr inbounds nuw i8, ptr %this, i64 376
  %mul15 = fmul double %eta, %add
  %call16 = tail call noundef double @_ZNK8QuantLib28CumulativeNormalDistributionclEd(ptr noundef nonnull align 8 dereferenceable(57) %f_, double noundef %mul15)
  %call18 = tail call noundef double @_ZNK8QuantLib21AnalyticBarrierEngine12stdDeviationEv(ptr noundef nonnull align 8 dereferenceable(440) %this)
  %sub = fsub double %add, %call18
  %mul19 = fmul double %eta, %sub
  %call20 = tail call noundef double @_ZNK8QuantLib28CumulativeNormalDistributionclEd(ptr noundef nonnull align 8 dereferenceable(57) %f_, double noundef %mul19)
  %5 = load ptr, ptr %process_.i, align 8, !tbaa !39
  %cmp.not.i.i14 = icmp eq ptr %5, null
  br i1 %cmp.not.i.i14, label %cond.false.i.i18, label %_ZNK8QuantLib21AnalyticBarrierEngine10underlyingEv.exit20, !prof !71

cond.false.i.i18:                                 ; preds = %_ZNK8QuantLib21AnalyticBarrierEngine10underlyingEv.exit
  tail call void @_ZN5boost16assertion_failedEPKcS1_S1_l(ptr noundef nonnull @.str.19, ptr noundef nonnull @__PRETTY_FUNCTION__._ZNK5boost10shared_ptrIN8QuantLib30GeneralizedBlackScholesProcessEEptEv, ptr noundef nonnull @.str.20, i64 noundef 784)
  %.pre.i.i19 = load ptr, ptr %process_.i, align 8, !tbaa !39
  br label %_ZNK8QuantLib21AnalyticBarrierEngine10underlyingEv.exit20

_ZNK8QuantLib21AnalyticBarrierEngine10underlyingEv.exit20: ; preds = %_ZNK8QuantLib21AnalyticBarrierEngine10underlyingEv.exit, %cond.false.i.i18
  %6 = phi ptr [ %5, %_ZNK8QuantLib21AnalyticBarrierEngine10underlyingEv.exit ], [ %.pre.i.i19, %cond.false.i.i18 ]
  %mul5 = fmul double %div, %call4
  %mul6 = fmul double %div, %mul5
  %vtable.i15 = load ptr, ptr %6, align 8, !tbaa !35
  %vfn.i16 = getelementptr inbounds i8, ptr %vtable.i15, i64 120
  %7 = load ptr, ptr %vfn.i16, align 8
  %call2.i17 = tail call noundef double %7(ptr noundef nonnull align 8 dereferenceable(250) %6)
  %call22 = tail call noundef double @_ZNK8QuantLib21AnalyticBarrierEngine16dividendDiscountEv(ptr noundef nonnull align 8 dereferenceable(440) %this)
  %mul23 = fmul double %call2.i17, %call22
  %cmp = fcmp oeq double %call16, 0.000000e+00
  %mul24 = fmul double %mul6, %call16
  %cond = select i1 %cmp, double 0.000000e+00, double %mul24
  %call26 = tail call noundef double @_ZNK8QuantLib21AnalyticBarrierEngine6strikeEv(ptr noundef nonnull align 8 dereferenceable(440) %this)
  %call27 = tail call noundef double @_ZNK8QuantLib21AnalyticBarrierEngine16riskFreeDiscountEv(ptr noundef nonnull align 8 dereferenceable(440) %this)
  %mul28 = fmul double %call26, %call27
  %cmp29 = fcmp oeq double %call20, 0.000000e+00
  %8 = fneg double %call20
  %mul32.neg = fmul double %call4, %8
  %9 = select i1 %cmp29, double -0.000000e+00, double %mul32.neg
  %neg = fmul double %9, %mul28
  %10 = tail call double @llvm.fmuladd.f64(double %mul23, double %cond, double %neg)
  %mul36 = fmul double %phi, %10
  ret double %mul36
}